CCS PCH C Compiler, Version 4.062, 41466               02-avr.-12 15:01

               Filename: C:\Users\Etudiant\Desktop\Lab 9\Partie 1\exercise onde carré 1khz avec timer2.lst

               ROM used: 298 bytes (1%)
                         Largest free fragment is 32466
               RAM used: 25 (1%) at main() level
                         25 (1%) worst case
               Stack:    1 worst case (0 in main + 1 for interrupts)

*
0000:  GOTO   00B4
*
0008:  MOVWF  05
000A:  MOVFF  FD8,06
000E:  MOVFF  FE0,07
0012:  MOVLB  0
0014:  MOVFF  FE9,0D
0018:  MOVFF  FEA,08
001C:  MOVFF  FE1,09
0020:  MOVFF  FE2,0A
0024:  MOVFF  FD9,0B
0028:  MOVFF  FDA,0C
002C:  MOVFF  FF3,14
0030:  MOVFF  FF4,15
0034:  MOVFF  FFA,16
0038:  MOVFF  00,0F
003C:  MOVFF  01,10
0040:  MOVFF  02,11
0044:  MOVFF  03,12
0048:  MOVFF  04,13
004C:  BTFSS  F9D.1
004E:  GOTO   0058
0052:  BTFSC  F9E.1
0054:  GOTO   009E
0058:  MOVFF  0F,00
005C:  MOVFF  10,01
0060:  MOVFF  11,02
0064:  MOVFF  12,03
0068:  MOVFF  13,04
006C:  BSF    0E.7
006E:  MOVFF  0D,FE9
0072:  MOVFF  08,FEA
0076:  MOVFF  09,FE1
007A:  MOVFF  0A,FE2
007E:  MOVFF  0B,FD9
0082:  MOVFF  0C,FDA
0086:  MOVFF  14,FF3
008A:  MOVFF  15,FF4
008E:  MOVFF  16,FFA
0092:  MOVF   05,W
0094:  MOVFF  07,FE0
0098:  MOVFF  06,FD8
009C:  RETFIE 0
.................... /////////////////////////////////////////////////////////////////////////////// 
.................... //            Applications des microcontrolleurs        243-444-RK           // 
.................... //                            Laboratoire no. 9                              // 
.................... //                                                                           // 
.................... /////////////////////////////////////////////////////////////////////////////// 
.................... //                                                                           // 
.................... // Copyright: Dany Ferron 2012                                               // 
.................... //                                                                           // 
.................... /////////////////////////////////////////////////////////////////////////////// 
....................  
.................... #include "exercise onde carré 1khz avec timer2.h" 
.................... #include <18F4550.h> 
.................... //////// Standard Header file for the PIC18F4550 device //////////////// 
.................... #device PIC18F4550 
.................... #list 
....................  
.................... #device adc=8 
....................  
.................... #FUSES NOWDT                    //No Watch Dog Timer 
.................... #FUSES WDT128                   //Watch Dog Timer uses 1:128 Postscale 
.................... #FUSES HS                       //High speed Osc (> 4mhz) 
.................... #FUSES NOPROTECT                //Code not protected from reading 
.................... #FUSES BROWNOUT                 //Reset when brownout detected 
.................... #FUSES BORV20                   //Brownout reset at 2.0V 
.................... #FUSES NOPUT                    //No Power Up Timer 
.................... #FUSES NOCPD                    //No EE protection 
.................... #FUSES STVREN                   //Stack full/underflow will cause reset 
.................... #FUSES NODEBUG                  //No Debug mode for ICD 
.................... #FUSES LVP                      //Low Voltage Programming on B3(PIC16) or B5(PIC18) 
.................... #FUSES NOWRT                    //Program memory not write protected 
.................... #FUSES NOWRTD                   //Data EEPROM not write protected 
.................... #FUSES IESO                     //Internal External Switch Over mode enabled 
.................... #FUSES FCMEN                    //Fail-safe clock monitor enabled 
.................... #FUSES PBADEN                   //PORTB pins are configured as analog input channels on RESET 
.................... #FUSES NOWRTC                   //configuration not registers write protected 
.................... #FUSES NOWRTB                   //Boot block not write protected 
.................... #FUSES NOEBTR                   //Memory not protected from table reads 
.................... #FUSES NOEBTRB                  //Boot block not protected from table reads 
.................... #FUSES NOCPB                    //No Boot Block code protection 
.................... #FUSES MCLR                     //Master Clear pin enabled 
.................... #FUSES LPT1OSC                  //Timer1 configured for low-power operation 
.................... #FUSES NOXINST                  //Extended set extension and Indexed Addressing mode disabled (Legacy mode) 
.................... #FUSES PLL12                    //Divide By 12(48MHz oscillator input) 
.................... #FUSES CPUDIV4                  //System Clock by 4 
.................... #FUSES USBDIV                   //USB clock source comes from PLL divide by 2 
.................... #FUSES VREGEN                   //USB voltage regulator enabled 
.................... #FUSES ICPRT                    //ICPRT enabled 
....................  
.................... #use delay(clock=20000000) 
.................... #use rs232(baud=9600,parity=N,xmit=PIN_C6,rcv=PIN_C7,bits=8) 
....................  
....................  
.................... int sortie = 1; 
....................  
.................... #INT_TIMER2     
.................... void TIMER2_isr (void) 
.................... { 
....................    sortie ^=1; 
009E:  MOVLW  01
00A0:  XORWF  18,F
.................... output_bit(PIN_B0, sortie); 
00A2:  MOVF   18,F
00A4:  BNZ   00AA
00A6:  BCF    F8A.0
00A8:  BRA    00AC
00AA:  BSF    F8A.0
00AC:  BCF    F93.0
.................... } 
....................  
00AE:  BCF    F9E.1
00B0:  GOTO   0058
.................... void main() 
.................... { 
00B4:  CLRF   FF8
00B6:  BCF    FD0.7
00B8:  BSF    0D.7
00BA:  CLRF   FEA
00BC:  CLRF   FE9
00BE:  BSF    FB8.3
00C0:  MOVLW  08
00C2:  MOVWF  FAF
00C4:  MOVLW  02
00C6:  MOVWF  FB0
00C8:  MOVLW  A6
00CA:  MOVWF  FAC
00CC:  MOVLW  90
00CE:  MOVWF  FAB
00D0:  MOVF   FC1,W
00D2:  ANDLW  C0
00D4:  IORLW  0F
00D6:  MOVWF  FC1
00D8:  MOVLW  07
00DA:  MOVWF  FB4
00DC:  MOVLW  01
00DE:  MOVWF  18
....................    setup_adc_ports(NO_ANALOGS|VSS_VDD); 
00E0:  MOVF   FC1,W
00E2:  ANDLW  C0
00E4:  IORLW  0F
00E6:  MOVWF  FC1
....................    setup_adc(ADC_OFF); 
00E8:  BCF    FC2.0
....................    setup_psp(PSP_DISABLED); 
00EA:  BCF    F96.4
....................    setup_spi(SPI_SS_DISABLED); 
00EC:  BCF    FC6.5
00EE:  BCF    F94.7
00F0:  BSF    F93.0
00F2:  BCF    F93.1
00F4:  MOVLW  01
00F6:  MOVWF  FC6
00F8:  MOVLW  00
00FA:  MOVWF  FC7
....................    setup_wdt(WDT_OFF); 
00FC:  BCF    FD1.0
....................    setup_timer_0(RTCC_INTERNAL); 
00FE:  MOVLW  80
0100:  MOVWF  FD5
....................    setup_timer_1(T1_DISABLED); 
0102:  CLRF   FCD
....................    setup_timer_2(T2_DIV_BY_1,249,10);  //1/20 000 000*4*1*(249+1)*10=0.5 msec => 1KHz 
0104:  MOVLW  48
0106:  IORLW  04
0108:  MOVWF  FCA
010A:  MOVLW  F9
010C:  MOVWF  FCB
....................    setup_comparator(NC_NC_NC_NC); 
010E:  MOVLW  07
0110:  MOVWF  FB4
0112:  MOVF   F92,W
0114:  MOVLW  10
0116:  MOVWF  00
0118:  DECFSZ 00,F
011A:  BRA    0118
011C:  NOP   
011E:  MOVF   FB4,W
0120:  BCF    FA1.6
....................    setup_vref(FALSE); 
0122:  CLRF   FB5
....................    enable_interrupts(INT_TIMER2); 
0124:  BSF    F9D.1
....................    enable_interrupts(GLOBAL);  
0126:  MOVLW  C0
0128:  IORWF  FF2,F
....................     
....................    while(TRUE); 
012A:  BRA    012A
.................... } 
....................  
012C:  SLEEP 

Configuration Fuses:
   Word  1: CC3F   IESO FCMEN HS PLL12 CPUDIV4 USBDIV
   Word  2: 0E3F   BROWNOUT WDT128 NOWDT BORV20 NOPUT VREGEN
   Word  3: 8700   PBADEN CCP2C1 MCLR LPT1OSC
   Word  4: 00A5   STVREN NODEBUG LVP NOXINST ICPRT
   Word  5: C00F   NOPROTECT NOCPD NOCPB
   Word  6: E00F   NOWRT NOWRTD NOWRTC NOWRTB
   Word  7: 400F   NOEBTR NOEBTRB
